target datalayout = "e-m:e-p270:32:32-p271:32:32-p272:64:64-i64:64-i128:128-f80:128-n8:16:32:64-S128"
target triple = "x86_64-pc-linux-gnu"

%struct.H5F_t = type { ptr, ptr, ptr, ptr, i32, ptr, i8, i8, ptr, i32 }
%struct.H5F_shared_t = type { ptr, ptr, ptr, i8, i32, i32, %struct.H5F_mtab_t, ptr, i8, i8, i64, i32, i32, i64, i64, ptr, ptr, %struct.H5AC_cache_config_t, %struct.H5AC_cache_image_config_t, i8, i8, ptr, i64, i32, i8, i64, i64, double, i64, i64, i64, i32, i32, i32, i8, i32, ptr, ptr, ptr, ptr, i8, i8, i8, i64, i64, ptr, ptr, i32, i64, i8, i32, i8, i64, i8, [13 x i32], [13 x i64], [13 x ptr], i8, i64, i64, [7 x i32], [7 x i32], %struct.H5F_blk_aggr_t, %struct.H5F_blk_aggr_t, i64, i64, %struct.H5F_meta_accum_t, i32, i32, [30 x ptr], %struct.H5F_object_flush_t, i8, ptr }
%struct.H5F_mtab_t = type { i32, i32, ptr }
%struct.H5AC_cache_config_t = type { i32, i8, i8, i8, [1025 x i8], i8, i8, i64, double, i64, i64, i64, i32, double, double, i8, i64, i32, double, double, i32, double, double, i8, i64, i32, i8, double, i64, i32 }
%struct.H5AC_cache_image_config_t = type { i32, i8, i8, i32 }
%struct.H5F_blk_aggr_t = type { i64, i64, i64, i64, i64 }
%struct.H5F_meta_accum_t = type { ptr, i64, i64, i64, i64, i64, i8 }
%struct.H5F_object_flush_t = type { ptr, ptr }

@.str = private unnamed_addr constant [101 x i8] c"generated/home/dtcxzyw/WorkSpace/Projects/compilers/llvm-opt-benchmark/bench/hdf5/hdf5/src/H5Ftest.c\00", align 1
@H5E_ARGS_g = external global i64, align 8
@H5E_BADTYPE_g = external global i64, align 8
@.str.1 = private unnamed_addr constant [11 x i8] c"not a file\00", align 1
@__func__.H5F__get_maxaddr_test = private unnamed_addr constant [22 x i8] c"H5F__get_maxaddr_test\00", align 1

; Function Attrs: nounwind uwtable
define i32 @H5F__get_maxaddr_test(i64 noundef %0, ptr noundef %1) #0 {
  %3 = alloca i64, align 8
  %4 = alloca ptr, align 8
  %5 = alloca ptr, align 8
  %6 = alloca i32, align 4
  %7 = alloca i8, align 1
  store i64 %0, ptr %3, align 8
  store ptr %1, ptr %4, align 8
  store i32 0, ptr %6, align 4
  store i8 0, ptr %7, align 1
  %8 = load i64, ptr %3, align 8
  %9 = call ptr @H5VL_object_verify(i64 noundef %8, i32 noundef 1)
  store ptr %9, ptr %5, align 8
  %10 = icmp eq ptr null, %9
  br i1 %10, label %11, label %26

11:                                               ; preds = %2
  br label %12

12:                                               ; preds = %11
  br label %13

13:                                               ; preds = %12
  br label %14

14:                                               ; preds = %13
  %15 = load i64, ptr @H5E_ARGS_g, align 8
  %16 = load i64, ptr @H5E_BADTYPE_g, align 8
  %17 = call i32 (ptr, ptr, i32, i64, i64, ptr, ...) @H5E_printf_stack(ptr noundef @.str, ptr noundef @__func__.H5F__get_maxaddr_test, i32 noundef 171, i64 noundef %15, i64 noundef %16, ptr noundef @.str.1)
  br label %18

18:                                               ; preds = %14
  store i8 1, ptr %7, align 1
  %19 = load i8, ptr %7, align 1
  %20 = trunc i8 %19 to i1
  %21 = zext i1 %20 to i8
  store i8 %21, ptr %7, align 1
  br label %22

22:                                               ; preds = %18
  br label %23

23:                                               ; preds = %22
  store i32 -1, ptr %6, align 4
  br label %33

24:                                               ; No predecessors!
  br label %25

25:                                               ; preds = %24
  br label %26

26:                                               ; preds = %25, %2
  %27 = load ptr, ptr %5, align 8
  %28 = getelementptr inbounds %struct.H5F_t, ptr %27, i32 0, i32 2
  %29 = load ptr, ptr %28, align 8
  %30 = getelementptr inbounds %struct.H5F_shared_t, ptr %29, i32 0, i32 14
  %31 = load i64, ptr %30, align 8
  %32 = load ptr, ptr %4, align 8
  store i64 %31, ptr %32, align 8
  br label %33

33:                                               ; preds = %26, %23
  %34 = load i32, ptr %6, align 4
  ret i32 %34
}